target datalayout = "e-m:e-p270:32:32-p271:32:32-p272:64:64-i64:64-i128:128-f80:128-n8:16:32:64-S128"
target triple = "x86_64-pc-linux-gnu"

%"class.zmq::msg_t" = type { %union.anon }
%union.anon = type { %struct.anon }
%struct.anon = type { ptr, [34 x i8], i8, i8, i32, %"union.zmq::msg_t::group_t" }
%"union.zmq::msg_t::group_t" = type { %struct.anon.1 }
%struct.anon.1 = type { i8, ptr }
%"class.zmq::pipe_t" = type { %"class.zmq::object_t.base", [4 x i8], %"class.zmq::array_item_t.base", [4 x i8], %"class.zmq::array_item_t.base.11", [4 x i8], %"class.zmq::array_item_t.base.13", ptr, ptr, i8, i8, i32, i32, i32, i32, i64, i64, i64, ptr, ptr, i32, i8, [3 x i8], %"struct.zmq::blob_t", i32, i8, [3 x i8], %"struct.zmq::endpoint_uri_pair_t", %"class.zmq::msg_t" }
%"class.zmq::object_t.base" = type <{ ptr, ptr, i32 }>
%"class.zmq::array_item_t.base" = type <{ ptr, i32 }>
%"class.zmq::array_item_t.base.11" = type <{ ptr, i32 }>
%"class.zmq::array_item_t.base.13" = type <{ ptr, i32 }>
%"struct.zmq::blob_t" = type <{ ptr, i64, i8, [7 x i8] }>
%"struct.zmq::endpoint_uri_pair_t" = type <{ %"class.std::__cxx11::basic_string", %"class.std::__cxx11::basic_string", i32, [4 x i8] }>
%"class.std::__cxx11::basic_string" = type { %"struct.std::__cxx11::basic_string<char>::_Alloc_hider", i64, %union.anon.14 }
%"struct.std::__cxx11::basic_string<char>::_Alloc_hider" = type { ptr }
%union.anon.14 = type { i64, [8 x i8] }

@stderr = external global ptr, align 8
@.str.1 = private unnamed_addr constant [104 x i8] c"generated/home/dtcxzyw/WorkSpace/Projects/compilers/llvm-opt-benchmark/bench/libzmq/libzmq/src/pipe.cpp\00", align 1
@.str.4 = private unnamed_addr constant [30 x i8] c"Assertion failed: %s (%s:%d)\0A\00", align 1
@.str.16 = private unnamed_addr constant [6 x i8] c"false\00", align 1

; Function Attrs: mustprogress uwtable
define void @_ZN3zmq6pipe_t5flushEv(ptr noundef nonnull align 8 dereferenceable(328) %0) #0 align 2 {
  %2 = alloca ptr, align 8
  store ptr %0, ptr %2, align 8, !tbaa !27
  %3 = load ptr, ptr %2, align 8
  %4 = getelementptr inbounds nuw %"class.zmq::pipe_t", ptr %3, i32 0, i32 20
  %5 = load i32, ptr %4, align 8, !tbaa !110
  %6 = icmp eq i32 %5, 3
  br i1 %6, label %7, label %8

7:                                                ; preds = %1
  br label %22

8:                                                ; preds = %1
  %9 = getelementptr inbounds nuw %"class.zmq::pipe_t", ptr %3, i32 0, i32 8
  %10 = load ptr, ptr %9, align 8, !tbaa !108
  %11 = icmp ne ptr %10, null
  br i1 %11, label %12, label %22

12:                                               ; preds = %8
  %13 = getelementptr inbounds nuw %"class.zmq::pipe_t", ptr %3, i32 0, i32 8
  %14 = load ptr, ptr %13, align 8, !tbaa !108
  %15 = load ptr, ptr %14, align 8, !tbaa !31
  %16 = getelementptr inbounds ptr, ptr %15, i64 4
  %17 = load ptr, ptr %16, align 8
  %18 = call noundef zeroext i1 %17(ptr noundef nonnull align 8 dereferenceable(8) %14)
  br i1 %18, label %22, label %19

19:                                               ; preds = %12
  %20 = getelementptr inbounds nuw %"class.zmq::pipe_t", ptr %3, i32 0, i32 18
  %21 = load ptr, ptr %20, align 8, !tbaa !53
  call void @_ZN3zmq8object_t18send_activate_readEPNS_6pipe_tE(ptr noundef nonnull align 8 dereferenceable(20) %3, ptr noundef %21)
  br label %22

22:                                               ; preds = %7, %19, %12, %8
  ret void
}

; Function Attrs: mustprogress uwtable
define void @_ZN3zmq6pipe_t9terminateEb(ptr noundef nonnull align 8 dereferenceable(328) %0, i1 noundef zeroext %1) #0 align 2 {
  %3 = alloca ptr, align 8
  %4 = alloca i8, align 1
  %5 = alloca %"class.zmq::msg_t", align 8
  store ptr %0, ptr %3, align 8, !tbaa !27
  %6 = zext i1 %1 to i8
  store i8 %6, ptr %4, align 1, !tbaa !15
  %7 = load ptr, ptr %3, align 8
  %8 = load i8, ptr %4, align 1, !tbaa !15, !range !17, !noundef !18
  %9 = trunc i8 %8 to i1
  %10 = getelementptr inbounds nuw %"class.zmq::pipe_t", ptr %7, i32 0, i32 21
  %11 = zext i1 %9 to i8
  store i8 %11, ptr %10, align 4, !tbaa !126
  %12 = getelementptr inbounds nuw %"class.zmq::pipe_t", ptr %7, i32 0, i32 20
  %13 = load i32, ptr %12, align 8, !tbaa !110
  %14 = icmp eq i32 %13, 4
  br i1 %14, label %19, label %15

15:                                               ; preds = %2
  %16 = getelementptr inbounds nuw %"class.zmq::pipe_t", ptr %7, i32 0, i32 20
  %17 = load i32, ptr %16, align 8, !tbaa !110
  %18 = icmp eq i32 %17, 5
  br i1 %18, label %19, label %20

19:                                               ; preds = %15, %2
  br label %81

20:                                               ; preds = %15
  %21 = getelementptr inbounds nuw %"class.zmq::pipe_t", ptr %7, i32 0, i32 20
  %22 = load i32, ptr %21, align 8, !tbaa !110
  %23 = icmp eq i32 %22, 3
  br i1 %23, label %24, label %25

24:                                               ; preds = %20
  br label %81

25:                                               ; preds = %20
  %26 = getelementptr inbounds nuw %"class.zmq::pipe_t", ptr %7, i32 0, i32 20
  %27 = load i32, ptr %26, align 8, !tbaa !110
  %28 = icmp eq i32 %27, 0
  br i1 %28, label %29, label %33

29:                                               ; preds = %25
  %30 = getelementptr inbounds nuw %"class.zmq::pipe_t", ptr %7, i32 0, i32 18
  %31 = load ptr, ptr %30, align 8, !tbaa !53
  call void @_ZN3zmq8object_t14send_pipe_termEPNS_6pipe_tE(ptr noundef nonnull align 8 dereferenceable(20) %7, ptr noundef %31)
  %32 = getelementptr inbounds nuw %"class.zmq::pipe_t", ptr %7, i32 0, i32 20
  store i32 4, ptr %32, align 8, !tbaa !110
  br label %69

33:                                               ; preds = %25
  %34 = getelementptr inbounds nuw %"class.zmq::pipe_t", ptr %7, i32 0, i32 20
  %35 = load i32, ptr %34, align 8, !tbaa !110
  %36 = icmp eq i32 %35, 2
  br i1 %36, label %37, label %46

37:                                               ; preds = %33
  %38 = getelementptr inbounds nuw %"class.zmq::pipe_t", ptr %7, i32 0, i32 21
  %39 = load i8, ptr %38, align 4, !tbaa !126, !range !17, !noundef !18
  %40 = trunc i8 %39 to i1
  br i1 %40, label %46, label %41

41:                                               ; preds = %37
  call void @_ZNK3zmq6pipe_t8rollbackEv(ptr noundef nonnull align 8 dereferenceable(328) %7)
  %42 = getelementptr inbounds nuw %"class.zmq::pipe_t", ptr %7, i32 0, i32 8
  store ptr null, ptr %42, align 8, !tbaa !108
  %43 = getelementptr inbounds nuw %"class.zmq::pipe_t", ptr %7, i32 0, i32 18
  %44 = load ptr, ptr %43, align 8, !tbaa !53
  call void @_ZN3zmq8object_t18send_pipe_term_ackEPNS_6pipe_tE(ptr noundef nonnull align 8 dereferenceable(20) %7, ptr noundef %44)
  %45 = getelementptr inbounds nuw %"class.zmq::pipe_t", ptr %7, i32 0, i32 20
  store i32 3, ptr %45, align 8, !tbaa !110
  br label %68

46:                                               ; preds = %37, %33
  %47 = getelementptr inbounds nuw %"class.zmq::pipe_t", ptr %7, i32 0, i32 20
  %48 = load i32, ptr %47, align 8, !tbaa !110
  %49 = icmp eq i32 %48, 2
  br i1 %49, label %50, label %51

50:                                               ; preds = %46
  br label %67

51:                                               ; preds = %46
  %52 = getelementptr inbounds nuw %"class.zmq::pipe_t", ptr %7, i32 0, i32 20
  %53 = load i32, ptr %52, align 8, !tbaa !110
  %54 = icmp eq i32 %53, 1
  br i1 %54, label %55, label %59

55:                                               ; preds = %51
  %56 = getelementptr inbounds nuw %"class.zmq::pipe_t", ptr %7, i32 0, i32 18
  %57 = load ptr, ptr %56, align 8, !tbaa !53
  call void @_ZN3zmq8object_t14send_pipe_termEPNS_6pipe_tE(ptr noundef nonnull align 8 dereferenceable(20) %7, ptr noundef %57)
  %58 = getelementptr inbounds nuw %"class.zmq::pipe_t", ptr %7, i32 0, i32 20
  store i32 4, ptr %58, align 8, !tbaa !110
  br label %66

59:                                               ; preds = %51
  br label %60

60:                                               ; preds = %59
  %61 = load ptr, ptr @stderr, align 8, !tbaa !21
  %62 = call i32 (ptr, ptr, ...) @fprintf(ptr noundef %61, ptr noundef @.str.4, ptr noundef @.str.16, ptr noundef @.str.1, i32 noundef 428) #17
  %63 = load ptr, ptr @stderr, align 8, !tbaa !21
  %64 = call i32 @fflush(ptr noundef %63)
  call void @_ZN3zmq9zmq_abortEPKc(ptr noundef @.str.16)
  br label %65

65:                                               ; preds = %60
  br label %66

66:                                               ; preds = %65, %55
  br label %67

67:                                               ; preds = %66, %50
  br label %68

68:                                               ; preds = %67, %41
  br label %69

69:                                               ; preds = %68, %29
  %70 = getelementptr inbounds nuw %"class.zmq::pipe_t", ptr %7, i32 0, i32 10
  store i8 0, ptr %70, align 1, !tbaa !118
  %71 = getelementptr inbounds nuw %"class.zmq::pipe_t", ptr %7, i32 0, i32 8
  %72 = load ptr, ptr %71, align 8, !tbaa !108
  %73 = icmp ne ptr %72, null
  br i1 %73, label %74, label %81

74:                                               ; preds = %69
  call void @_ZNK3zmq6pipe_t8rollbackEv(ptr noundef nonnull align 8 dereferenceable(328) %7)
  call void @llvm.lifetime.start.p0(i64 64, ptr %5) #17
  %75 = call noundef i32 @_ZN3zmq5msg_t14init_delimiterEv(ptr noundef nonnull align 8 dereferenceable(64) %5)
  %76 = getelementptr inbounds nuw %"class.zmq::pipe_t", ptr %7, i32 0, i32 8
  %77 = load ptr, ptr %76, align 8, !tbaa !108
  %78 = load ptr, ptr %77, align 8, !tbaa !31
  %79 = getelementptr inbounds ptr, ptr %78, i64 2
  %80 = load ptr, ptr %79, align 8
  call void %80(ptr noundef nonnull align 8 dereferenceable(8) %77, ptr noundef nonnull align 8 dereferenceable(64) %5, i1 noundef zeroext false)
  call void @_ZN3zmq6pipe_t5flushEv(ptr noundef nonnull align 8 dereferenceable(328) %7)
  call void @llvm.lifetime.end.p0(i64 64, ptr %5) #17
  br label %81

81:                                               ; preds = %19, %24, %74, %69
  ret void
}