; Function Attrs: mustprogress uwtable
define void @_ZN3zmq6pipe_t9terminateEb(ptr noundef nonnull align 8 dereferenceable(328) initializes((156, 157)) %0, i1 noundef zeroext %1) local_unnamed_addr #0 align 2 {
  %3 = alloca %"class.zmq::msg_t", align 8
  %4 = zext i1 %1 to i8
  %5 = getelementptr inbounds nuw i8, ptr %0, i64 156
  store i8 %4, ptr %5, align 4, !tbaa !116
  %6 = getelementptr inbounds nuw i8, ptr %0, i64 152
  %7 = load i32, ptr %6, align 8, !tbaa !105
  switch i32 %7, label %19 [
    i32 4, label %45
    i32 5, label %45
    i32 3, label %45
    i32 0, label %8
    i32 2, label %11
    i32 1, label %16
  ]

8:                                                ; preds = %2
  %9 = getelementptr inbounds nuw i8, ptr %0, i64 136
  %10 = load ptr, ptr %9, align 8, !tbaa !29
  tail call void @_ZN3zmq8object_t14send_pipe_termEPNS_6pipe_tE(ptr noundef nonnull align 8 dereferenceable(20) %0, ptr noundef %10)
  store i32 4, ptr %6, align 8, !tbaa !105
  br label %.thread

11:                                               ; preds = %2
  br i1 %1, label %.thread, label %12

12:                                               ; preds = %11
  tail call void @_ZNK3zmq6pipe_t8rollbackEv(ptr noundef nonnull align 8 dereferenceable(328) %0)
  %13 = getelementptr inbounds nuw i8, ptr %0, i64 80
  store ptr null, ptr %13, align 8, !tbaa !103
  %14 = getelementptr inbounds nuw i8, ptr %0, i64 136
  %15 = load ptr, ptr %14, align 8, !tbaa !29
  tail call void @_ZN3zmq8object_t18send_pipe_term_ackEPNS_6pipe_tE(ptr noundef nonnull align 8 dereferenceable(20) %0, ptr noundef %15)
  store i32 3, ptr %6, align 8, !tbaa !105
  br label %.thread

16:                                               ; preds = %2
  %17 = getelementptr inbounds nuw i8, ptr %0, i64 136
  %18 = load ptr, ptr %17, align 8, !tbaa !29
  tail call void @_ZN3zmq8object_t14send_pipe_termEPNS_6pipe_tE(ptr noundef nonnull align 8 dereferenceable(20) %0, ptr noundef %18)
  store i32 4, ptr %6, align 8, !tbaa !105
  br label %.thread

19:                                               ; preds = %2
  %20 = load ptr, ptr @stderr, align 8, !tbaa !21
  %21 = tail call i32 (ptr, ptr, ...) @fprintf(ptr noundef %20, ptr noundef nonnull @.str.4, ptr noundef nonnull @.str.16, ptr noundef nonnull @.str.1, i32 noundef 428) #26
  %22 = load ptr, ptr @stderr, align 8, !tbaa !21
  %23 = tail call i32 @fflush(ptr noundef %22)
  tail call void @_ZN3zmq9zmq_abortEPKc(ptr noundef nonnull @.str.16)
  br label %.thread

.thread:                                          ; preds = %11, %12, %16, %19, %8
  %24 = getelementptr inbounds nuw i8, ptr %0, i64 89
  store i8 0, ptr %24, align 1, !tbaa !101
  %25 = getelementptr inbounds nuw i8, ptr %0, i64 80
  %26 = load ptr, ptr %25, align 8, !tbaa !103
  %.not = icmp eq ptr %26, null
  br i1 %.not, label %45, label %27

27:                                               ; preds = %.thread
  tail call void @_ZNK3zmq6pipe_t8rollbackEv(ptr noundef nonnull align 8 dereferenceable(328) %0)
  call void @llvm.lifetime.start.p0(i64 64, ptr nonnull %3) #25
  %28 = call noundef i32 @_ZN3zmq5msg_t14init_delimiterEv(ptr noundef nonnull align 8 dereferenceable(64) %3)
  %29 = load ptr, ptr %25, align 8, !tbaa !103
  %30 = load ptr, ptr %29, align 8, !tbaa !9
  %31 = getelementptr inbounds nuw i8, ptr %30, i64 16
  %32 = load ptr, ptr %31, align 8
  call void %32(ptr noundef nonnull align 8 dereferenceable(8) %29, ptr noundef nonnull align 8 dereferenceable(64) %3, i1 noundef zeroext false)
  %33 = load i32, ptr %6, align 8, !tbaa !105
  %34 = icmp eq i32 %33, 3
  br i1 %34, label %_ZN3zmq6pipe_t5flushEv.exit, label %35

35:                                               ; preds = %27
  %36 = load ptr, ptr %25, align 8, !tbaa !103
  %.not.i = icmp eq ptr %36, null
  br i1 %.not.i, label %_ZN3zmq6pipe_t5flushEv.exit, label %37

37:                                               ; preds = %35
  %38 = load ptr, ptr %36, align 8, !tbaa !9
  %39 = getelementptr inbounds nuw i8, ptr %38, i64 32
  %40 = load ptr, ptr %39, align 8
  %41 = call noundef zeroext i1 %40(ptr noundef nonnull align 8 dereferenceable(8) %36)
  br i1 %41, label %_ZN3zmq6pipe_t5flushEv.exit, label %42

42:                                               ; preds = %37
  %43 = getelementptr inbounds nuw i8, ptr %0, i64 136
  %44 = load ptr, ptr %43, align 8, !tbaa !29
  call void @_ZN3zmq8object_t18send_activate_readEPNS_6pipe_tE(ptr noundef nonnull align 8 dereferenceable(328) %0, ptr noundef %44)
  br label %_ZN3zmq6pipe_t5flushEv.exit

_ZN3zmq6pipe_t5flushEv.exit:                      ; preds = %27, %35, %37, %42
  call void @llvm.lifetime.end.p0(i64 64, ptr nonnull %3) #25
  br label %45

45:                                               ; preds = %2, %2, %2, %_ZN3zmq6pipe_t5flushEv.exit, %.thread
  ret void
}